target datalayout = "e-m:e-p270:32:32-p271:32:32-p272:64:64-i64:64-i128:128-f80:128-n8:16:32:64-S128"
target triple = "x86_64-pc-linux-gnu"

%struct.AVProbeData = type { ptr, ptr, i32, ptr }

@.str.141 = private unnamed_addr constant [8 x i8] c"PCD_OPA\00", align 1
@.str.142 = private unnamed_addr constant [8 x i8] c"PCD_IPI\00", align 1

; Function Attrs: nounwind uwtable
define internal i32 @photocd_probe(ptr noundef %0) #0 {
  %2 = alloca i32, align 4
  %3 = alloca ptr, align 8
  store ptr %0, ptr %3, align 8, !tbaa !139
  %4 = load ptr, ptr %3, align 8, !tbaa !139
  %5 = getelementptr inbounds nuw %struct.AVProbeData, ptr %4, i32 0, i32 1
  %6 = load ptr, ptr %5, align 8, !tbaa !96
  %7 = call i32 @memcmp(ptr noundef %6, ptr noundef @.str.141, i64 noundef 7) #13
  %8 = icmp ne i32 %7, 0
  br i1 %8, label %10, label %9

9:                                                ; preds = %1
  store i32 99, ptr %2, align 4
  br label %24

10:                                               ; preds = %1
  %11 = load ptr, ptr %3, align 8, !tbaa !139
  %12 = getelementptr inbounds nuw %struct.AVProbeData, ptr %11, i32 0, i32 2
  %13 = load i32, ptr %12, align 8, !tbaa !97
  %14 = icmp slt i32 %13, 2055
  br i1 %14, label %22, label %15

15:                                               ; preds = %10
  %16 = load ptr, ptr %3, align 8, !tbaa !139
  %17 = getelementptr inbounds nuw %struct.AVProbeData, ptr %16, i32 0, i32 1
  %18 = load ptr, ptr %17, align 8, !tbaa !96
  %19 = getelementptr inbounds i8, ptr %18, i64 2048
  %20 = call i32 @memcmp(ptr noundef %19, ptr noundef @.str.142, i64 noundef 7) #13
  %21 = icmp ne i32 %20, 0
  br i1 %21, label %22, label %23

22:                                               ; preds = %15, %10
  store i32 0, ptr %2, align 4
  br label %24

23:                                               ; preds = %15
  store i32 99, ptr %2, align 4
  br label %24

24:                                               ; preds = %23, %22, %9
  %25 = load i32, ptr %2, align 4
  ret i32 %25
}