; Function Attrs: mustprogress nofree norecurse nounwind willreturn memory(read, inaccessiblemem: none) uwtable
define internal range(i32 0, 100) i32 @photocd_probe(ptr noundef readonly captures(none) %0) #9 {
  %2 = getelementptr inbounds nuw i8, ptr %0, i64 8
  %3 = load ptr, ptr %2, align 8, !tbaa !90
  %bcmp = tail call i32 @bcmp(ptr noundef nonnull dereferenceable(7) %3, ptr noundef nonnull dereferenceable(7) @.str.141, i64 7)
  %.not = icmp eq i32 %bcmp, 0
  br i1 %.not, label %10, label %4

4:                                                ; preds = %1
  %5 = getelementptr inbounds nuw i8, ptr %0, i64 16
  %6 = load i32, ptr %5, align 8, !tbaa !91
  %7 = icmp slt i32 %6, 2055
  br i1 %7, label %10, label %8

8:                                                ; preds = %4
  %9 = getelementptr inbounds nuw i8, ptr %3, i64 2048
  %bcmp3 = tail call i32 @bcmp(ptr noundef nonnull dereferenceable(7) %9, ptr noundef nonnull dereferenceable(7) @.str.142, i64 7)
  %.not4 = icmp eq i32 %bcmp3, 0
  %spec.select = select i1 %.not4, i32 99, i32 0
  br label %10

10:                                               ; preds = %8, %4, %1
  %.0 = phi i32 [ 99, %1 ], [ 0, %4 ], [ %spec.select, %8 ]
  ret i32 %.0
}